target datalayout = "e-m:e-p270:32:32-p271:32:32-p272:64:64-i64:64-i128:128-f80:128-n8:16:32:64-S128"
target triple = "x86_64-pc-linux-gnu"

%"class.llvm::SmallPtrSetImplBase.base" = type <{ ptr, ptr, i32, i32, i32 }>
%"class.clang::ento::NoOwnershipChangeVisitor" = type { %"class.clang::ento::NoStateChangeFuncVisitor.base", ptr, ptr }
%"class.clang::ento::NoStateChangeFuncVisitor.base" = type <{ %"class.clang::ento::BugReporterVisitor", %"class.llvm::SmallPtrSet.4", %"class.llvm::SmallPtrSet.4", i32 }>
%"class.clang::ento::BugReporterVisitor" = type { ptr, %"class.llvm::FoldingSetBase::Node" }
%"class.llvm::FoldingSetBase::Node" = type { ptr }
%"class.llvm::SmallPtrSet.4" = type { %"class.llvm::SmallPtrSetImpl.base.6", [32 x ptr] }
%"class.llvm::SmallPtrSetImpl.base.6" = type { %"class.llvm::SmallPtrSetImplBase.base" }
%"class.std::shared_ptr" = type { %"class.std::__shared_ptr" }
%"class.std::__shared_ptr" = type { ptr, %"class.std::__shared_count" }
%"class.std::__shared_count" = type { ptr }
%"class.llvm::ArrayRef" = type { ptr, i64 }
%"class.clang::ento::SVal" = type <{ ptr, i8, [7 x i8] }>

; Function Attrs: mustprogress nounwind uwtable
define linkonce_odr hidden void @_ZNSt14__shared_countILN9__gnu_cxx12_Lock_policyE2EEC2Ev(ptr noundef nonnull align 8 dereferenceable(8) %0) unnamed_addr #0 comdat align 2 {
  %2 = alloca ptr, align 8
  store ptr %0, ptr %2, align 8
  %3 = load ptr, ptr %2, align 8
  %4 = getelementptr inbounds nuw %"class.std::__shared_count", ptr %3, i32 0, i32 0
  store ptr null, ptr %4, align 8
  ret void
}

; Function Attrs: mustprogress nounwind uwtable
define linkonce_odr hidden void @_ZNSt12__shared_ptrIN5clang4ento19PathDiagnosticPieceELN9__gnu_cxx12_Lock_policyE2EEC2Ev(ptr noundef nonnull align 8 dereferenceable(16) %0) unnamed_addr #0 comdat align 2 {
  %2 = alloca ptr, align 8
  store ptr %0, ptr %2, align 8
  %3 = load ptr, ptr %2, align 8
  %4 = getelementptr inbounds nuw %"class.std::__shared_ptr", ptr %3, i32 0, i32 0
  store ptr null, ptr %4, align 8
  %5 = getelementptr inbounds nuw %"class.std::__shared_ptr", ptr %3, i32 0, i32 1
  call void @_ZNSt14__shared_countILN9__gnu_cxx12_Lock_policyE2EEC2Ev(ptr noundef nonnull align 8 dereferenceable(8) %5) #7
  ret void
}

; Function Attrs: mustprogress nounwind uwtable
define linkonce_odr hidden void @_ZNSt10shared_ptrIN5clang4ento19PathDiagnosticPieceEEC2Ev(ptr noundef nonnull align 8 dereferenceable(16) %0) unnamed_addr #0 comdat align 2 {
  %2 = alloca ptr, align 8
  store ptr %0, ptr %2, align 8
  %3 = load ptr, ptr %2, align 8
  call void @_ZNSt12__shared_ptrIN5clang4ento19PathDiagnosticPieceELN9__gnu_cxx12_Lock_policyE2EEC2Ev(ptr noundef nonnull align 8 dereferenceable(16) %3) #7
  ret void
}

; Function Attrs: mustprogress nounwind uwtable
define linkonce_odr hidden void @_ZNSt10shared_ptrIN5clang4ento19PathDiagnosticPieceEEC2EDn(ptr noundef nonnull align 8 dereferenceable(16) %0, ptr %1) unnamed_addr #0 comdat align 2 {
  %3 = alloca ptr, align 8
  %4 = alloca ptr, align 8
  store ptr %0, ptr %3, align 8
  store ptr %1, ptr %4, align 8
  %5 = load ptr, ptr %3, align 8
  call void @_ZNSt10shared_ptrIN5clang4ento19PathDiagnosticPieceEEC2Ev(ptr noundef nonnull align 8 dereferenceable(16) %5) #7
  ret void
}

; Function Attrs: mustprogress nounwind uwtable
define linkonce_odr hidden noundef i64 @_ZNK4llvm8ArrayRefIPN5clang11ParmVarDeclEE4sizeEv(ptr noundef nonnull align 8 dereferenceable(16) %0) #0 comdat align 2 {
  %2 = alloca ptr, align 8
  store ptr %0, ptr %2, align 8
  %3 = load ptr, ptr %2, align 8
  %4 = getelementptr inbounds nuw %"class.llvm::ArrayRef", ptr %3, i32 0, i32 1
  %5 = load i64, ptr %4, align 8
  ret i64 %5
}

; Function Attrs: mustprogress nounwind uwtable
define dso_local void @_ZN5clang4ento24NoOwnershipChangeVisitor26maybeEmitNoteForParametersERNS0_22PathSensitiveBugReportERKNS0_9CallEventEPKNS0_12ExplodedNodeE(ptr dead_on_unwind noalias writable sret(%"class.std::shared_ptr") align 8 %0, ptr noundef nonnull align 8 dereferenceable(616) %1, ptr noundef nonnull align 8 dereferenceable(1016) %2, ptr noundef nonnull align 8 dereferenceable(72) %3, ptr noundef %4) unnamed_addr #0 align 2 {
  %6 = alloca ptr, align 8
  %7 = alloca ptr, align 8
  %8 = alloca ptr, align 8
  %9 = alloca ptr, align 8
  %10 = alloca ptr, align 8
  %11 = alloca %"class.llvm::ArrayRef", align 8
  %12 = alloca i32, align 4
  %13 = alloca %"class.clang::ento::SVal", align 8
  %14 = alloca { ptr, i8 }, align 8
  store ptr %0, ptr %6, align 8
  store ptr %1, ptr %7, align 8
  store ptr %2, ptr %8, align 8
  store ptr %3, ptr %9, align 8
  store ptr %4, ptr %10, align 8
  %15 = load ptr, ptr %7, align 8
  %16 = load ptr, ptr %9, align 8
  %17 = load ptr, ptr %16, align 8
  %18 = getelementptr inbounds ptr, ptr %17, i64 18
  %19 = load ptr, ptr %18, align 8
  %20 = call { ptr, i64 } %19(ptr noundef nonnull align 8 dereferenceable(72) %16)
  %21 = getelementptr inbounds nuw { ptr, i64 }, ptr %11, i32 0, i32 0
  %22 = extractvalue { ptr, i64 } %20, 0
  store ptr %22, ptr %21, align 8
  %23 = getelementptr inbounds nuw { ptr, i64 }, ptr %11, i32 0, i32 1
  %24 = extractvalue { ptr, i64 } %20, 1
  store i64 %24, ptr %23, align 8
  store i32 0, ptr %12, align 4
  br label %25

25:                                               ; preds = %57, %5
  %26 = load i32, ptr %12, align 4
  %27 = load ptr, ptr %9, align 8
  %28 = load ptr, ptr %27, align 8
  %29 = getelementptr inbounds ptr, ptr %28, i64 9
  %30 = load ptr, ptr %29, align 8
  %31 = call noundef i32 %30(ptr noundef nonnull align 8 dereferenceable(72) %27)
  %32 = icmp ult i32 %26, %31
  br i1 %32, label %33, label %38

33:                                               ; preds = %25
  %34 = load i32, ptr %12, align 4
  %35 = zext i32 %34 to i64
  %36 = call noundef i64 @_ZNK4llvm8ArrayRefIPN5clang11ParmVarDeclEE4sizeEv(ptr noundef nonnull align 8 dereferenceable(16) %11)
  %37 = icmp ult i64 %35, %36
  br label %38

38:                                               ; preds = %33, %25
  %39 = phi i1 [ false, %25 ], [ %37, %33 ]
  br i1 %39, label %40, label %60

40:                                               ; preds = %38
  %41 = load ptr, ptr %9, align 8
  %42 = load i32, ptr %12, align 4
  %43 = load ptr, ptr %41, align 8
  %44 = getelementptr inbounds ptr, ptr %43, i64 11
  %45 = load ptr, ptr %44, align 8
  %46 = call { ptr, i8 } %45(ptr noundef nonnull align 8 dereferenceable(72) %41, i32 noundef %42)
  store { ptr, i8 } %46, ptr %14, align 8
  call void @llvm.memcpy.p0.p0.i64(ptr align 8 %13, ptr align 8 %14, i64 9, i1 false)
  %47 = call noundef ptr @_ZNK5clang4ento4SVal11getAsSymbolEb(ptr noundef nonnull align 8 dereferenceable(9) %13, i1 noundef zeroext false)
  %48 = getelementptr inbounds nuw %"class.clang::ento::NoOwnershipChangeVisitor", ptr %15, i32 0, i32 1
  %49 = load ptr, ptr %48, align 8
  %50 = icmp eq ptr %47, %49
  br i1 %50, label %51, label %56

51:                                               ; preds = %40
  %52 = load ptr, ptr %10, align 8
  %53 = load ptr, ptr %15, align 8
  %54 = getelementptr inbounds ptr, ptr %53, i64 13
  %55 = load ptr, ptr %54, align 8
  call void %55(ptr dead_on_unwind writable sret(%"class.std::shared_ptr") align 8 %0, ptr noundef nonnull align 8 dereferenceable(616) %15, ptr noundef %52)
  br label %61

56:                                               ; preds = %40
  br label %57

57:                                               ; preds = %56
  %58 = load i32, ptr %12, align 4
  %59 = add i32 %58, 1
  store i32 %59, ptr %12, align 4
  br label %25, !llvm.loop !4

60:                                               ; preds = %38
  call void @_ZNSt10shared_ptrIN5clang4ento19PathDiagnosticPieceEEC2EDn(ptr noundef nonnull align 8 dereferenceable(16) %0, ptr null) #7
  br label %61

61:                                               ; preds = %60, %51
  ret void
}