; Function Attrs: mustprogress nounwind uwtable
define dso_local void @_ZN5clang4ento24NoOwnershipChangeVisitor26maybeEmitNoteForParametersERNS0_22PathSensitiveBugReportERKNS0_9CallEventEPKNS0_12ExplodedNodeE(ptr dead_on_unwind noalias writable sret(%"class.std::shared_ptr") align 8 %0, ptr noundef nonnull align 8 dereferenceable(616) %1, ptr nocapture nonnull readnone align 8 %2, ptr noundef nonnull align 8 dereferenceable(72) %3, ptr noundef %4) unnamed_addr #0 align 2 {
  %6 = alloca %"class.clang::ento::SVal", align 8
  %7 = load ptr, ptr %3, align 8
  %8 = getelementptr inbounds i8, ptr %7, i64 144
  %9 = load ptr, ptr %8, align 8
  %10 = tail call { ptr, i64 } %9(ptr noundef nonnull align 8 dereferenceable(72) %3) #10
  %11 = extractvalue { ptr, i64 } %10, 1
  %12 = load ptr, ptr %3, align 8
  %13 = getelementptr inbounds i8, ptr %12, i64 72
  %14 = load ptr, ptr %13, align 8
  %15 = tail call noundef i32 %14(ptr noundef nonnull align 8 dereferenceable(72) %3) #10
  %16 = icmp ne i32 %15, 0
  %17 = icmp ne i64 %11, 0
  %or.cond9 = select i1 %16, i1 %17, i1 false
  br i1 %or.cond9, label %.lr.ph, label %.critedge

.lr.ph:                                           ; preds = %5
  %.sroa.2.0..sroa_idx = getelementptr inbounds i8, ptr %6, i64 8
  %18 = getelementptr inbounds nuw i8, ptr %1, i64 600
  br label %27

19:                                               ; preds = %27
  %indvars.iv.next = add nuw nsw i64 %indvars.iv, 1
  %20 = load ptr, ptr %3, align 8
  %21 = getelementptr inbounds i8, ptr %20, i64 72
  %22 = load ptr, ptr %21, align 8
  %23 = call noundef i32 %22(ptr noundef nonnull align 8 dereferenceable(72) %3) #10
  %24 = zext i32 %23 to i64
  %25 = icmp ult i64 %indvars.iv.next, %24
  %26 = icmp ugt i64 %11, %indvars.iv.next
  %or.cond = select i1 %25, i1 %26, i1 false
  br i1 %or.cond, label %27, label %.critedge, !llvm.loop !20

27:                                               ; preds = %.lr.ph, %19
  %indvars.iv = phi i64 [ 0, %.lr.ph ], [ %indvars.iv.next, %19 ]
  %28 = load ptr, ptr %3, align 8
  %29 = getelementptr inbounds i8, ptr %28, i64 88
  %30 = load ptr, ptr %29, align 8
  %31 = trunc nuw i64 %indvars.iv to i32
  %32 = call { ptr, i8 } %30(ptr noundef nonnull align 8 dereferenceable(72) %3, i32 noundef %31) #10
  %.fca.0.extract = extractvalue { ptr, i8 } %32, 0
  %.fca.1.extract = extractvalue { ptr, i8 } %32, 1
  store ptr %.fca.0.extract, ptr %6, align 8
  store i8 %.fca.1.extract, ptr %.sroa.2.0..sroa_idx, align 8
  %33 = call noundef ptr @_ZNK5clang4ento4SVal11getAsSymbolEb(ptr noundef nonnull align 8 dereferenceable(9) %6, i1 noundef zeroext false) #10
  %34 = load ptr, ptr %18, align 8
  %35 = icmp eq ptr %33, %34
  br i1 %35, label %36, label %19

36:                                               ; preds = %27
  %37 = load ptr, ptr %1, align 8
  %38 = getelementptr inbounds i8, ptr %37, i64 104
  %39 = load ptr, ptr %38, align 8
  call void %39(ptr dead_on_unwind writable sret(%"class.std::shared_ptr") align 8 %0, ptr noundef nonnull align 8 dereferenceable(616) %1, ptr noundef %4) #10
  br label %40

.critedge:                                        ; preds = %19, %5
  call void @llvm.memset.p0.i64(ptr noundef nonnull align 8 dereferenceable(16) %0, i8 0, i64 16, i1 false)
  br label %40

40:                                               ; preds = %.critedge, %36
  ret void
}